target datalayout = "e-m:e-p270:32:32-p271:32:32-p272:64:64-i64:64-i128:128-f80:128-n8:16:32:64-S128"
target triple = "x86_64-pc-linux-gnu"

%"struct.vcpkg::StringLiteral" = type { %"struct.vcpkg::ZStringView" }
%"struct.vcpkg::ZStringView" = type { %"struct.vcpkg::StringView" }
%"struct.vcpkg::StringView" = type { ptr, i64 }
%"class.std::__cxx11::basic_string" = type { %"struct.std::__cxx11::basic_string<char>::_Alloc_hider", i64, %union.anon }
%"struct.std::__cxx11::basic_string<char>::_Alloc_hider" = type { ptr }
%union.anon = type { i64, [8 x i8] }
%"struct.vcpkg::Path" = type { %"class.std::__cxx11::basic_string" }
%"struct.(anonymous namespace)::NugetBaseBinaryProvider" = type { ptr, %"struct.(anonymous namespace)::NuGetTool", %"struct.vcpkg::Path", %"struct.vcpkg::Path", %"class.std::__cxx11::basic_string" }
%"struct.(anonymous namespace)::NuGetTool" = type <{ %"struct.vcpkg::Command", %"class.std::__cxx11::basic_string", i8, i8, [6 x i8] }>
%"struct.vcpkg::Command" = type { %"class.std::__cxx11::basic_string" }
%"struct.(anonymous namespace)::NuGetSource" = type { %"struct.vcpkg::StringLiteral", %"class.std::__cxx11::basic_string" }
%"struct.vcpkg::IReadBinaryProvider" = type { ptr }
%"struct.(anonymous namespace)::NugetReadBinaryProvider" = type { %"struct.vcpkg::IReadBinaryProvider", %"struct.(anonymous namespace)::NugetBaseBinaryProvider", %"struct.(anonymous namespace)::NuGetSource" }

; Function Attrs: mustprogress nounwind uwtable
define linkonce_odr dso_local void @_ZN5vcpkg7CommandD2Ev(ptr noundef nonnull align 8 dereferenceable(32) %0) unnamed_addr #1 comdat align 2 {
  %2 = alloca ptr, align 8
  store ptr %0, ptr %2, align 8
  %3 = load ptr, ptr %2, align 8
  %4 = getelementptr inbounds %"struct.vcpkg::Command", ptr %3, i32 0, i32 0
  call void @_ZNSt7__cxx1112basic_stringIcSt11char_traitsIcESaIcEED1Ev(ptr noundef nonnull align 8 dereferenceable(32) %4) #8
  ret void
}

; Function Attrs: mustprogress nounwind uwtable
define internal void @_ZN12_GLOBAL__N_19NuGetToolD2Ev(ptr noundef nonnull align 8 dereferenceable(66) %0) unnamed_addr #1 align 2 {
  %2 = alloca ptr, align 8
  store ptr %0, ptr %2, align 8
  %3 = load ptr, ptr %2, align 8
  %4 = getelementptr inbounds %"struct.(anonymous namespace)::NuGetTool", ptr %3, i32 0, i32 1
  call void @_ZNSt7__cxx1112basic_stringIcSt11char_traitsIcESaIcEED1Ev(ptr noundef nonnull align 8 dereferenceable(32) %4) #8
  %5 = getelementptr inbounds %"struct.(anonymous namespace)::NuGetTool", ptr %3, i32 0, i32 0
  call void @_ZN5vcpkg7CommandD2Ev(ptr noundef nonnull align 8 dereferenceable(32) %5) #8
  ret void
}

; Function Attrs: mustprogress nounwind uwtable
define linkonce_odr dso_local void @_ZN5vcpkg4PathD2Ev(ptr noundef nonnull align 8 dereferenceable(32) %0) unnamed_addr #1 comdat align 2 {
  %2 = alloca ptr, align 8
  store ptr %0, ptr %2, align 8
  %3 = load ptr, ptr %2, align 8
  %4 = getelementptr inbounds %"struct.vcpkg::Path", ptr %3, i32 0, i32 0
  call void @_ZNSt7__cxx1112basic_stringIcSt11char_traitsIcESaIcEED1Ev(ptr noundef nonnull align 8 dereferenceable(32) %4) #8
  ret void
}

; Function Attrs: mustprogress nounwind uwtable
define linkonce_odr dso_local void @_ZN5vcpkg19IReadBinaryProviderD2Ev(ptr noundef nonnull align 8 dereferenceable(8) %0) unnamed_addr #1 comdat align 2 {
  %2 = alloca ptr, align 8
  store ptr %0, ptr %2, align 8
  ret void
}

; Function Attrs: mustprogress nounwind uwtable
define internal void @_ZN12_GLOBAL__N_123NugetBaseBinaryProviderD2Ev(ptr noundef nonnull align 8 dereferenceable(176) %0) unnamed_addr #1 align 2 {
  %2 = alloca ptr, align 8
  store ptr %0, ptr %2, align 8
  %3 = load ptr, ptr %2, align 8
  %4 = getelementptr inbounds %"struct.(anonymous namespace)::NugetBaseBinaryProvider", ptr %3, i32 0, i32 4
  call void @_ZNSt7__cxx1112basic_stringIcSt11char_traitsIcESaIcEED1Ev(ptr noundef nonnull align 8 dereferenceable(32) %4) #8
  %5 = getelementptr inbounds %"struct.(anonymous namespace)::NugetBaseBinaryProvider", ptr %3, i32 0, i32 3
  call void @_ZN5vcpkg4PathD2Ev(ptr noundef nonnull align 8 dereferenceable(32) %5) #8
  %6 = getelementptr inbounds %"struct.(anonymous namespace)::NugetBaseBinaryProvider", ptr %3, i32 0, i32 2
  call void @_ZN5vcpkg4PathD2Ev(ptr noundef nonnull align 8 dereferenceable(32) %6) #8
  %7 = getelementptr inbounds %"struct.(anonymous namespace)::NugetBaseBinaryProvider", ptr %3, i32 0, i32 1
  call void @_ZN12_GLOBAL__N_19NuGetToolD2Ev(ptr noundef nonnull align 8 dereferenceable(66) %7) #8
  ret void
}

; Function Attrs: mustprogress nounwind uwtable
define internal void @_ZN12_GLOBAL__N_111NuGetSourceD2Ev(ptr noundef nonnull align 8 dereferenceable(48) %0) unnamed_addr #1 align 2 {
  %2 = alloca ptr, align 8
  store ptr %0, ptr %2, align 8
  %3 = load ptr, ptr %2, align 8
  %4 = getelementptr inbounds %"struct.(anonymous namespace)::NuGetSource", ptr %3, i32 0, i32 1
  call void @_ZNSt7__cxx1112basic_stringIcSt11char_traitsIcESaIcEED1Ev(ptr noundef nonnull align 8 dereferenceable(32) %4) #8
  ret void
}

; Function Attrs: mustprogress nounwind uwtable
define internal void @_ZN12_GLOBAL__N_123NugetReadBinaryProviderD2Ev(ptr noundef nonnull align 8 dereferenceable(232) %0) unnamed_addr #1 align 2 {
  %2 = alloca ptr, align 8
  store ptr %0, ptr %2, align 8
  %3 = load ptr, ptr %2, align 8
  store ptr getelementptr inbounds ({ [7 x ptr] }, ptr @_ZTVN12_GLOBAL__N_123NugetReadBinaryProviderE, i32 0, i32 0, i32 2), ptr %3, align 8
  %4 = getelementptr inbounds %"struct.(anonymous namespace)::NugetReadBinaryProvider", ptr %3, i32 0, i32 2
  call void @_ZN12_GLOBAL__N_111NuGetSourceD2Ev(ptr noundef nonnull align 8 dereferenceable(48) %4) #8
  %5 = getelementptr inbounds i8, ptr %3, i64 8
  call void @_ZN12_GLOBAL__N_123NugetBaseBinaryProviderD2Ev(ptr noundef nonnull align 8 dereferenceable(176) %5) #8
  call void @_ZN5vcpkg19IReadBinaryProviderD2Ev(ptr noundef nonnull align 8 dereferenceable(8) %3) #8
  ret void
}